target datalayout = "e-m:e-p270:32:32-p271:32:32-p272:64:64-i64:64-i128:128-f80:128-n8:16:32:64-S128"
target triple = "x86_64-pc-linux-gnu"

%struct.PQExpBufferData = type { ptr, i64, i64 }

@.str.165 = private unnamed_addr constant [3 x i8] c"%s\00", align 1
@.str.223 = private unnamed_addr constant [6 x i8] c"%s:  \00", align 1
@.str.224 = private unnamed_addr constant [9 x i8] c"ERROR:  \00", align 1
@.str.225 = private unnamed_addr constant [16 x i8] c"(not available)\00", align 1

; Function Attrs: nounwind uwtable
define internal void @minimal_error_message(ptr noundef %0) #0 {
  %2 = alloca ptr, align 8
  %3 = alloca ptr, align 8
  %4 = alloca ptr, align 8
  store ptr %0, ptr %2, align 8
  call void @llvm.lifetime.start.p0(i64 8, ptr %3) #10
  call void @llvm.lifetime.start.p0(i64 8, ptr %4) #10
  %5 = call ptr @createPQExpBuffer()
  store ptr %5, ptr %3, align 8
  %6 = load ptr, ptr %2, align 8
  %7 = call ptr @PQresultErrorField(ptr noundef %6, i32 noundef 83)
  store ptr %7, ptr %4, align 8
  %8 = load ptr, ptr %4, align 8
  %9 = icmp ne ptr %8, null
  br i1 %9, label %10, label %13

10:                                               ; preds = %1
  %11 = load ptr, ptr %3, align 8
  %12 = load ptr, ptr %4, align 8
  call void (ptr, ptr, ...) @printfPQExpBuffer(ptr noundef %11, ptr noundef @.str.223, ptr noundef %12)
  br label %15

13:                                               ; preds = %1
  %14 = load ptr, ptr %3, align 8
  call void (ptr, ptr, ...) @printfPQExpBuffer(ptr noundef %14, ptr noundef @.str.224)
  br label %15

15:                                               ; preds = %13, %10
  %16 = load ptr, ptr %2, align 8
  %17 = call ptr @PQresultErrorField(ptr noundef %16, i32 noundef 77)
  store ptr %17, ptr %4, align 8
  %18 = load ptr, ptr %4, align 8
  %19 = icmp ne ptr %18, null
  br i1 %19, label %20, label %23

20:                                               ; preds = %15
  %21 = load ptr, ptr %3, align 8
  %22 = load ptr, ptr %4, align 8
  call void @appendPQExpBufferStr(ptr noundef %21, ptr noundef %22)
  br label %25

23:                                               ; preds = %15
  %24 = load ptr, ptr %3, align 8
  call void @appendPQExpBufferStr(ptr noundef %24, ptr noundef @.str.225)
  br label %25

25:                                               ; preds = %23, %20
  %26 = load ptr, ptr %3, align 8
  call void @appendPQExpBufferChar(ptr noundef %26, i8 noundef signext 10)
  %27 = load ptr, ptr %3, align 8
  %28 = getelementptr inbounds nuw %struct.PQExpBufferData, ptr %27, i32 0, i32 0
  %29 = load ptr, ptr %28, align 8
  call void (i32, i32, ptr, ...) @pg_log_generic(i32 noundef 4, i32 noundef 0, ptr noundef @.str.165, ptr noundef %29)
  %30 = load ptr, ptr %3, align 8
  call void @destroyPQExpBuffer(ptr noundef %30)
  call void @llvm.lifetime.end.p0(i64 8, ptr %4) #10
  call void @llvm.lifetime.end.p0(i64 8, ptr %3) #10
  ret void
}