; Function Attrs: nounwind uwtable
define internal fastcc void @minimal_error_message(ptr noundef %0) unnamed_addr #0 {
  %2 = tail call ptr @createPQExpBuffer() #16
  %3 = tail call ptr @PQresultErrorField(ptr noundef %0, i32 noundef 83) #16
  %.not = icmp eq ptr %3, null
  br i1 %.not, label %5, label %4

4:                                                ; preds = %1
  tail call void (ptr, ptr, ...) @printfPQExpBuffer(ptr noundef %2, ptr noundef nonnull @.str.223, ptr noundef nonnull %3) #16
  br label %6

5:                                                ; preds = %1
  tail call void (ptr, ptr, ...) @printfPQExpBuffer(ptr noundef %2, ptr noundef nonnull @.str.224) #16
  br label %6

6:                                                ; preds = %5, %4
  %7 = tail call ptr @PQresultErrorField(ptr noundef %0, i32 noundef 77) #16
  %.not14 = icmp eq ptr %7, null
  %.str.225. = select i1 %.not14, ptr @.str.225, ptr %7
  tail call void @appendPQExpBufferStr(ptr noundef %2, ptr noundef nonnull %.str.225.) #16
  tail call void @appendPQExpBufferChar(ptr noundef %2, i8 noundef signext 10) #16
  %8 = load ptr, ptr %2, align 8
  tail call void (i32, i32, ptr, ...) @pg_log_generic(i32 noundef 4, i32 noundef 0, ptr noundef nonnull @.str.165, ptr noundef %8) #16
  tail call void @destroyPQExpBuffer(ptr noundef nonnull %2) #16
  ret void
}